target datalayout = "e-m:e-p270:32:32-p271:32:32-p272:64:64-i64:64-i128:128-f80:128-n8:16:32:64-S128"
target triple = "x86_64-pc-linux-gnu"

%struct.Nwk_Man_t_ = type { ptr, ptr, ptr, ptr, ptr, [5 x i32], i32, ptr, ptr, ptr, ptr, ptr, i32, i32, i32, i32, i32 }
%struct.Nwk_Obj_t_ = type { ptr, ptr, ptr, %union.anon, i32, i32, i32, i32, float, float, float, i32, i32, i32, ptr }
%union.anon = type { ptr }
%struct.Vec_Ptr_t_ = type { i32, i32, ptr }

; Function Attrs: nounwind uwtable
define internal ptr @Vec_PtrEntry(ptr noundef %0, i32 noundef %1) #0 {
  %3 = alloca ptr, align 8
  %4 = alloca i32, align 4
  store ptr %0, ptr %3, align 8
  store i32 %1, ptr %4, align 4
  %5 = load ptr, ptr %3, align 8
  %6 = getelementptr inbounds %struct.Vec_Ptr_t_, ptr %5, i32 0, i32 2
  %7 = load ptr, ptr %6, align 8
  %8 = load i32, ptr %4, align 4
  %9 = sext i32 %8 to i64
  %10 = getelementptr inbounds ptr, ptr %7, i64 %9
  %11 = load ptr, ptr %10, align 8
  ret ptr %11
}

; Function Attrs: nounwind uwtable
define internal void @Nwk_ObjSetLevel(ptr noundef %0, i32 noundef %1) #0 {
  %3 = alloca ptr, align 8
  %4 = alloca i32, align 4
  store ptr %0, ptr %3, align 8
  store i32 %1, ptr %4, align 4
  %5 = load i32, ptr %4, align 4
  %6 = load ptr, ptr %3, align 8
  %7 = getelementptr inbounds %struct.Nwk_Obj_t_, ptr %6, i32 0, i32 7
  store i32 %5, ptr %7, align 4
  ret void
}

; Function Attrs: nounwind uwtable
define internal i32 @Nwk_ObjFaninNum(ptr noundef %0) #0 {
  %2 = alloca ptr, align 8
  store ptr %0, ptr %2, align 8
  %3 = load ptr, ptr %2, align 8
  %4 = getelementptr inbounds %struct.Nwk_Obj_t_, ptr %3, i32 0, i32 11
  %5 = load i32, ptr %4, align 4
  ret i32 %5
}

; Function Attrs: nounwind uwtable
define internal i32 @Nwk_ObjIsCo(ptr noundef %0) #0 {
  %2 = alloca ptr, align 8
  store ptr %0, ptr %2, align 8
  %3 = load ptr, ptr %2, align 8
  %4 = getelementptr inbounds %struct.Nwk_Obj_t_, ptr %3, i32 0, i32 4
  %5 = load i32, ptr %4, align 8
  %6 = and i32 %5, 7
  %7 = icmp eq i32 %6, 2
  %8 = zext i1 %7 to i32
  ret i32 %8
}

; Function Attrs: nounwind uwtable
define internal i32 @Nwk_ObjIsNode(ptr noundef %0) #0 {
  %2 = alloca ptr, align 8
  store ptr %0, ptr %2, align 8
  %3 = load ptr, ptr %2, align 8
  %4 = getelementptr inbounds %struct.Nwk_Obj_t_, ptr %3, i32 0, i32 4
  %5 = load i32, ptr %4, align 8
  %6 = and i32 %5, 7
  %7 = icmp eq i32 %6, 3
  %8 = zext i1 %7 to i32
  ret i32 %8
}

; Function Attrs: nounwind uwtable
define internal i32 @Nwk_ObjLevel(ptr noundef %0) #0 {
  %2 = alloca ptr, align 8
  store ptr %0, ptr %2, align 8
  %3 = load ptr, ptr %2, align 8
  %4 = getelementptr inbounds %struct.Nwk_Obj_t_, ptr %3, i32 0, i32 7
  %5 = load i32, ptr %4, align 4
  ret i32 %5
}

; Function Attrs: nounwind uwtable
define internal ptr @Nwk_ManCo(ptr noundef %0, i32 noundef %1) #0 {
  %3 = alloca ptr, align 8
  %4 = alloca i32, align 4
  store ptr %0, ptr %3, align 8
  store i32 %1, ptr %4, align 4
  %5 = load ptr, ptr %3, align 8
  %6 = getelementptr inbounds %struct.Nwk_Man_t_, ptr %5, i32 0, i32 3
  %7 = load ptr, ptr %6, align 8
  %8 = load i32, ptr %4, align 4
  %9 = call ptr @Vec_PtrEntry(ptr noundef %7, i32 noundef %8)
  ret ptr %9
}

; Function Attrs: nounwind uwtable
define internal i32 @Nwk_ObjIsCi(ptr noundef %0) #0 {
  %2 = alloca ptr, align 8
  store ptr %0, ptr %2, align 8
  %3 = load ptr, ptr %2, align 8
  %4 = getelementptr inbounds %struct.Nwk_Obj_t_, ptr %3, i32 0, i32 4
  %5 = load i32, ptr %4, align 8
  %6 = and i32 %5, 7
  %7 = icmp eq i32 %6, 1
  %8 = zext i1 %7 to i32
  ret i32 %8
}

; Function Attrs: nounwind uwtable
define internal void @Nwk_ObjSetTravIdCurrent(ptr noundef %0) #0 {
  %2 = alloca ptr, align 8
  store ptr %0, ptr %2, align 8
  %3 = load ptr, ptr %2, align 8
  %4 = getelementptr inbounds %struct.Nwk_Obj_t_, ptr %3, i32 0, i32 0
  %5 = load ptr, ptr %4, align 8
  %6 = getelementptr inbounds %struct.Nwk_Man_t_, ptr %5, i32 0, i32 12
  %7 = load i32, ptr %6, align 8
  %8 = load ptr, ptr %2, align 8
  %9 = getelementptr inbounds %struct.Nwk_Obj_t_, ptr %8, i32 0, i32 6
  store i32 %7, ptr %9, align 8
  ret void
}

; Function Attrs: nounwind uwtable
define internal i32 @Nwk_ObjIsTravIdCurrent(ptr noundef %0) #0 {
  %2 = alloca ptr, align 8
  store ptr %0, ptr %2, align 8
  %3 = load ptr, ptr %2, align 8
  %4 = getelementptr inbounds %struct.Nwk_Obj_t_, ptr %3, i32 0, i32 6
  %5 = load i32, ptr %4, align 8
  %6 = load ptr, ptr %2, align 8
  %7 = getelementptr inbounds %struct.Nwk_Obj_t_, ptr %6, i32 0, i32 0
  %8 = load ptr, ptr %7, align 8
  %9 = getelementptr inbounds %struct.Nwk_Man_t_, ptr %8, i32 0, i32 12
  %10 = load i32, ptr %9, align 8
  %11 = icmp eq i32 %5, %10
  %12 = zext i1 %11 to i32
  ret i32 %12
}

; Function Attrs: nounwind uwtable
define void @Nwk_ManLevel_rec(ptr noundef %0) #0 {
  %2 = alloca ptr, align 8
  %3 = alloca ptr, align 8
  %4 = alloca ptr, align 8
  %5 = alloca i32, align 4
  %6 = alloca i32, align 4
  %7 = alloca i32, align 4
  %8 = alloca i32, align 4
  %9 = alloca i32, align 4
  store ptr %0, ptr %2, align 8
  %10 = load ptr, ptr %2, align 8
  %11 = getelementptr inbounds %struct.Nwk_Obj_t_, ptr %10, i32 0, i32 0
  %12 = load ptr, ptr %11, align 8
  %13 = getelementptr inbounds %struct.Nwk_Man_t_, ptr %12, i32 0, i32 8
  %14 = load ptr, ptr %13, align 8
  store ptr %14, ptr %3, align 8
  store i32 0, ptr %9, align 4
  %15 = load ptr, ptr %2, align 8
  %16 = call i32 @Nwk_ObjIsTravIdCurrent(ptr noundef %15)
  %17 = icmp ne i32 %16, 0
  br i1 %17, label %18, label %19

18:                                               ; preds = %1
  br label %128

19:                                               ; preds = %1
  %20 = load ptr, ptr %2, align 8
  call void @Nwk_ObjSetTravIdCurrent(ptr noundef %20)
  %21 = load ptr, ptr %2, align 8
  %22 = call i32 @Nwk_ObjIsCi(ptr noundef %21)
  %23 = icmp ne i32 %22, 0
  br i1 %23, label %24, label %72

24:                                               ; preds = %19
  %25 = load ptr, ptr %3, align 8
  %26 = icmp ne ptr %25, null
  br i1 %26, label %27, label %71

27:                                               ; preds = %24
  %28 = load ptr, ptr %3, align 8
  %29 = load ptr, ptr %2, align 8
  %30 = getelementptr inbounds %struct.Nwk_Obj_t_, ptr %29, i32 0, i32 4
  %31 = load i32, ptr %30, align 8
  %32 = lshr i32 %31, 7
  %33 = call i32 @Tim_ManBoxForCi(ptr noundef %28, i32 noundef %32)
  store i32 %33, ptr %6, align 4
  %34 = load i32, ptr %6, align 4
  %35 = icmp sge i32 %34, 0
  br i1 %35, label %36, label %70

36:                                               ; preds = %27
  %37 = load ptr, ptr %3, align 8
  %38 = load i32, ptr %6, align 4
  %39 = call i32 @Tim_ManBoxInputFirst(ptr noundef %37, i32 noundef %38)
  store i32 %39, ptr %7, align 4
  %40 = load ptr, ptr %3, align 8
  %41 = load i32, ptr %6, align 4
  %42 = call i32 @Tim_ManBoxInputNum(ptr noundef %40, i32 noundef %41)
  store i32 %42, ptr %8, align 4
  store i32 0, ptr %5, align 4
  br label %43

43:                                               ; preds = %64, %36
  %44 = load i32, ptr %5, align 4
  %45 = load i32, ptr %8, align 4
  %46 = icmp slt i32 %44, %45
  br i1 %46, label %47, label %67

47:                                               ; preds = %43
  %48 = load ptr, ptr %2, align 8
  %49 = getelementptr inbounds %struct.Nwk_Obj_t_, ptr %48, i32 0, i32 0
  %50 = load ptr, ptr %49, align 8
  %51 = load i32, ptr %7, align 4
  %52 = load i32, ptr %5, align 4
  %53 = add nsw i32 %51, %52
  %54 = call ptr @Nwk_ManCo(ptr noundef %50, i32 noundef %53)
  store ptr %54, ptr %4, align 8
  %55 = load ptr, ptr %4, align 8
  call void @Nwk_ManLevel_rec(ptr noundef %55)
  %56 = load i32, ptr %9, align 4
  %57 = load ptr, ptr %4, align 8
  %58 = call i32 @Nwk_ObjLevel(ptr noundef %57)
  %59 = icmp slt i32 %56, %58
  br i1 %59, label %60, label %63

60:                                               ; preds = %47
  %61 = load ptr, ptr %4, align 8
  %62 = call i32 @Nwk_ObjLevel(ptr noundef %61)
  store i32 %62, ptr %9, align 4
  br label %63

63:                                               ; preds = %60, %47
  br label %64

64:                                               ; preds = %63
  %65 = load i32, ptr %5, align 4
  %66 = add nsw i32 %65, 1
  store i32 %66, ptr %5, align 4
  br label %43, !llvm.loop !11

67:                                               ; preds = %43
  %68 = load i32, ptr %9, align 4
  %69 = add nsw i32 %68, 1
  store i32 %69, ptr %9, align 4
  br label %70

70:                                               ; preds = %67, %27
  br label %71

71:                                               ; preds = %70, %24
  br label %125

72:                                               ; preds = %19
  %73 = load ptr, ptr %2, align 8
  %74 = call i32 @Nwk_ObjIsNode(ptr noundef %73)
  %75 = icmp ne i32 %74, 0
  br i1 %75, label %80, label %76

76:                                               ; preds = %72
  %77 = load ptr, ptr %2, align 8
  %78 = call i32 @Nwk_ObjIsCo(ptr noundef %77)
  %79 = icmp ne i32 %78, 0
  br i1 %79, label %80, label %123

80:                                               ; preds = %76, %72
  store i32 0, ptr %5, align 4
  br label %81

81:                                               ; preds = %108, %80
  %82 = load i32, ptr %5, align 4
  %83 = load ptr, ptr %2, align 8
  %84 = getelementptr inbounds %struct.Nwk_Obj_t_, ptr %83, i32 0, i32 11
  %85 = load i32, ptr %84, align 4
  %86 = icmp slt i32 %82, %85
  br i1 %86, label %87, label %96

87:                                               ; preds = %81
  %88 = load ptr, ptr %2, align 8
  %89 = getelementptr inbounds %struct.Nwk_Obj_t_, ptr %88, i32 0, i32 14
  %90 = load ptr, ptr %89, align 8
  %91 = load i32, ptr %5, align 4
  %92 = sext i32 %91 to i64
  %93 = getelementptr inbounds ptr, ptr %90, i64 %92
  %94 = load ptr, ptr %93, align 8
  store ptr %94, ptr %4, align 8
  %95 = icmp ne ptr %94, null
  br label %96

96:                                               ; preds = %87, %81
  %97 = phi i1 [ false, %81 ], [ %95, %87 ]
  br i1 %97, label %98, label %111

98:                                               ; preds = %96
  %99 = load ptr, ptr %4, align 8
  call void @Nwk_ManLevel_rec(ptr noundef %99)
  %100 = load i32, ptr %9, align 4
  %101 = load ptr, ptr %4, align 8
  %102 = call i32 @Nwk_ObjLevel(ptr noundef %101)
  %103 = icmp slt i32 %100, %102
  br i1 %103, label %104, label %107

104:                                              ; preds = %98
  %105 = load ptr, ptr %4, align 8
  %106 = call i32 @Nwk_ObjLevel(ptr noundef %105)
  store i32 %106, ptr %9, align 4
  br label %107

107:                                              ; preds = %104, %98
  br label %108

108:                                              ; preds = %107
  %109 = load i32, ptr %5, align 4
  %110 = add nsw i32 %109, 1
  store i32 %110, ptr %5, align 4
  br label %81, !llvm.loop !12

111:                                              ; preds = %96
  %112 = load ptr, ptr %2, align 8
  %113 = call i32 @Nwk_ObjIsNode(ptr noundef %112)
  %114 = icmp ne i32 %113, 0
  br i1 %114, label %115, label %122

115:                                              ; preds = %111
  %116 = load ptr, ptr %2, align 8
  %117 = call i32 @Nwk_ObjFaninNum(ptr noundef %116)
  %118 = icmp sgt i32 %117, 0
  br i1 %118, label %119, label %122

119:                                              ; preds = %115
  %120 = load i32, ptr %9, align 4
  %121 = add nsw i32 %120, 1
  store i32 %121, ptr %9, align 4
  br label %122

122:                                              ; preds = %119, %115, %111
  br label %124

123:                                              ; preds = %76
  br label %124

124:                                              ; preds = %123, %122
  br label %125

125:                                              ; preds = %124, %71
  %126 = load ptr, ptr %2, align 8
  %127 = load i32, ptr %9, align 4
  call void @Nwk_ObjSetLevel(ptr noundef %126, i32 noundef %127)
  br label %128

128:                                              ; preds = %125, %18
  ret void
}