; Function Attrs: nounwind uwtable
define void @Nwk_ManLevel_rec(ptr noundef captures(none) %0) local_unnamed_addr #0 {
  %2 = load ptr, ptr %0, align 8
  %3 = getelementptr inbounds nuw i8, ptr %2, i64 72
  %4 = load ptr, ptr %3, align 8
  %5 = getelementptr i8, ptr %0, i64 40
  %.val52 = load i32, ptr %5, align 8
  %6 = getelementptr i8, ptr %2, i64 104
  %.val51.val = load i32, ptr %6, align 8
  %.not = icmp eq i32 %.val52, %.val51.val
  br i1 %.not, label %48, label %7

7:                                                ; preds = %1
  store i32 %.val51.val, ptr %5, align 8
  %8 = getelementptr i8, ptr %0, i64 32
  %.val53 = load i32, ptr %8, align 8
  %9 = and i32 %.val53, 7
  switch i32 %9, label %._crit_edge [
    i32 1, label %10
    i32 3, label %28
    i32 2, label %28
  ]

10:                                               ; preds = %7
  %.not48 = icmp eq ptr %4, null
  br i1 %.not48, label %._crit_edge, label %11

11:                                               ; preds = %10
  %12 = lshr i32 %.val53, 7
  %13 = tail call i32 @Tim_ManBoxForCi(ptr noundef nonnull %4, i32 noundef %12) #9
  %14 = icmp sgt i32 %13, -1
  br i1 %14, label %15, label %._crit_edge

15:                                               ; preds = %11
  %16 = tail call i32 @Tim_ManBoxInputFirst(ptr noundef nonnull %4, i32 noundef %13) #9
  %17 = tail call i32 @Tim_ManBoxInputNum(ptr noundef nonnull %4, i32 noundef %13) #9
  %18 = icmp sgt i32 %17, 0
  br i1 %18, label %.lr.ph74.preheader, label %._crit_edge

.lr.ph74.preheader:                               ; preds = %15
  %19 = sext i32 %16 to i64
  %wide.trip.count = zext nneg i32 %17 to i64
  br label %.lr.ph74

.lr.ph74:                                         ; preds = %.lr.ph74.preheader, %.lr.ph74
  %indvars.iv77 = phi i64 [ 0, %.lr.ph74.preheader ], [ %indvars.iv.next78, %.lr.ph74 ]
  %.073 = phi i32 [ 0, %.lr.ph74.preheader ], [ %spec.select60, %.lr.ph74 ]
  %20 = load ptr, ptr %0, align 8
  %21 = getelementptr i8, ptr %20, i64 24
  %.val54 = load ptr, ptr %21, align 8
  %22 = getelementptr i8, ptr %.val54, i64 8
  %.val54.val = load ptr, ptr %22, align 8
  %23 = getelementptr ptr, ptr %.val54.val, i64 %indvars.iv77
  %24 = getelementptr ptr, ptr %23, i64 %19
  %25 = load ptr, ptr %24, align 8
  tail call void @Nwk_ManLevel_rec(ptr noundef %25)
  %26 = getelementptr i8, ptr %25, i64 44
  %.val58 = load i32, ptr %26, align 4
  %spec.select60 = tail call i32 @llvm.smax.i32(i32 %.073, i32 %.val58)
  %indvars.iv.next78 = add nuw nsw i64 %indvars.iv77, 1
  %exitcond.not = icmp eq i64 %indvars.iv.next78, %wide.trip.count
  br i1 %exitcond.not, label %._crit_edge.loopexit, label %.lr.ph74, !llvm.loop !11

._crit_edge.loopexit:                             ; preds = %.lr.ph74
  %27 = add nuw nsw i32 %spec.select60, 1
  br label %._crit_edge

28:                                               ; preds = %7, %7
  %29 = getelementptr inbounds nuw i8, ptr %0, i64 72
  %30 = getelementptr inbounds nuw i8, ptr %0, i64 60
  %31 = load i32, ptr %30, align 4
  %32 = icmp sgt i32 %31, 0
  br i1 %32, label %.lr.ph.preheader, label %.critedge

.lr.ph.preheader:                                 ; preds = %28
  %33 = load ptr, ptr %29, align 8
  %34 = load ptr, ptr %33, align 8
  %.not4681 = icmp eq ptr %34, null
  br i1 %.not4681, label %.critedge.loopexit, label %.lr.ph84

.lr.ph:                                           ; preds = %.lr.ph84
  %35 = load ptr, ptr %29, align 8
  %36 = getelementptr inbounds nuw ptr, ptr %35, i64 %indvars.iv.next
  %37 = load ptr, ptr %36, align 8
  %.not46 = icmp eq ptr %37, null
  br i1 %.not46, label %.critedge.loopexit.loopexit, label %.lr.ph84, !llvm.loop !12

.lr.ph84:                                         ; preds = %.lr.ph.preheader, %.lr.ph
  %38 = phi ptr [ %37, %.lr.ph ], [ %34, %.lr.ph.preheader ]
  %.36783 = phi i32 [ %spec.select61, %.lr.ph ], [ 0, %.lr.ph.preheader ]
  %indvars.iv82 = phi i64 [ %indvars.iv.next, %.lr.ph ], [ 0, %.lr.ph.preheader ]
  tail call void @Nwk_ManLevel_rec(ptr noundef nonnull %38)
  %39 = getelementptr i8, ptr %38, i64 44
  %.val56 = load i32, ptr %39, align 4
  %spec.select61 = tail call i32 @llvm.smax.i32(i32 %.36783, i32 %.val56)
  %indvars.iv.next = add nuw nsw i64 %indvars.iv82, 1
  %40 = load i32, ptr %30, align 4
  %41 = sext i32 %40 to i64
  %42 = icmp slt i64 %indvars.iv.next, %41
  br i1 %42, label %.lr.ph, label %.critedge.loopexit.loopexit, !llvm.loop !12

.critedge.loopexit.loopexit:                      ; preds = %.lr.ph84, %.lr.ph
  %43 = icmp sgt i32 %40, 0
  %44 = zext i1 %43 to i32
  br label %.critedge.loopexit

.critedge.loopexit:                               ; preds = %.critedge.loopexit.loopexit, %.lr.ph.preheader
  %.3.lcssa.ph = phi i32 [ 0, %.lr.ph.preheader ], [ %spec.select61, %.critedge.loopexit.loopexit ]
  %.lcssa.ph = phi i32 [ 1, %.lr.ph.preheader ], [ %44, %.critedge.loopexit.loopexit ]
  %.val.pre = load i32, ptr %8, align 8
  br label %.critedge

.critedge:                                        ; preds = %.critedge.loopexit, %28
  %.val = phi i32 [ %.val53, %28 ], [ %.val.pre, %.critedge.loopexit ]
  %.3.lcssa = phi i32 [ 0, %28 ], [ %.3.lcssa.ph, %.critedge.loopexit ]
  %.lcssa = phi i32 [ 0, %28 ], [ %.lcssa.ph, %.critedge.loopexit ]
  %45 = and i32 %.val, 7
  %.not65 = icmp eq i32 %45, 3
  br i1 %.not65, label %46, label %._crit_edge

46:                                               ; preds = %.critedge
  %spec.select = add nuw nsw i32 %.3.lcssa, %.lcssa
  br label %._crit_edge

._crit_edge:                                      ; preds = %15, %._crit_edge.loopexit, %7, %46, %.critedge, %10, %11
  %.2 = phi i32 [ 0, %11 ], [ 0, %10 ], [ %.3.lcssa, %.critedge ], [ %spec.select, %46 ], [ 0, %7 ], [ 1, %15 ], [ %27, %._crit_edge.loopexit ]
  %47 = getelementptr inbounds nuw i8, ptr %0, i64 44
  store i32 %.2, ptr %47, align 4
  br label %48

48:                                               ; preds = %1, %._crit_edge
  ret void
}